target datalayout = "e-m:e-p270:32:32-p271:32:32-p272:64:64-i64:64-i128:128-f80:128-n8:16:32:64-S128"
target triple = "x86_64-unknown-linux-gnu"

%struct.VirtIODevice = type { %struct.DeviceState, ptr, i8, i8, i16, i64, i64, i64, i64, ptr, i16, i32, i32, ptr, %struct.MemoryListener, i16, i8, i8, i8, i8, i8, i8, i8, i8, i8, ptr, ptr, i8, i8, ptr, ptr, %union.anon.1, %struct.EventNotifier, i8 }
%struct.DeviceState = type { %struct.Object, ptr, ptr, i8, i8, i64, ptr, i32, i8, ptr, %struct.NamedGPIOListHead, %struct.NamedClockListHead, %struct.BusStateHead, i32, i32, i32, %struct.ResettableState, ptr, %struct.MemReentrancyGuard }
%struct.Object = type { ptr, ptr, ptr, i32, ptr }
%struct.NamedGPIOListHead = type { ptr }
%struct.NamedClockListHead = type { ptr }
%struct.BusStateHead = type { ptr }
%struct.ResettableState = type { i32, i8, i8 }
%struct.MemReentrancyGuard = type { i8 }
%struct.MemoryListener = type { ptr, ptr, ptr, ptr, ptr, ptr, ptr, ptr, ptr, ptr, ptr, ptr, ptr, ptr, ptr, ptr, ptr, i32, ptr, ptr, %union.anon, %union.anon.0 }
%union.anon = type { %struct.QTailQLink }
%struct.QTailQLink = type { ptr, ptr }
%union.anon.0 = type { %struct.QTailQLink }
%union.anon.1 = type { %struct.QTailQLink }
%struct.EventNotifier = type { i32, i32, i8 }
%struct.VirtQueue = type { %struct.VRing, ptr, i16, i8, i16, i8, i16, i8, i16, i8, i8, i16, i32, i16, ptr, ptr, %struct.EventNotifier, %struct.EventNotifier, i8, %struct.anon }
%struct.VRing = type { i32, i32, i32, i64, i64, i64, ptr }
%struct.anon = type { ptr, ptr }

@.str.64 = private unnamed_addr constant [10 x i8] c"fbit < 64\00", align 1
@.str.65 = private unnamed_addr constant [105 x i8] c"/home/dtcxzyw/WorkSpace/Projects/compilers/llvm-opt-benchmark/bench/qemu/qemu/include/hw/virtio/virtio.h\00", align 1
@__PRETTY_FUNCTION__.virtio_has_feature = private unnamed_addr constant [49 x i8] c"_Bool virtio_has_feature(uint64_t, unsigned int)\00", align 1

; Function Attrs: nounwind sspstrong uwtable
define internal zeroext i1 @virtio_has_feature(i64 noundef %features, i32 noundef %fbit) #0 {
entry:
  %features.addr = alloca i64, align 8
  %fbit.addr = alloca i32, align 4
  store i64 %features, ptr %features.addr, align 8
  store i32 %fbit, ptr %fbit.addr, align 4
  %0 = load i32, ptr %fbit.addr, align 4
  %cmp = icmp ult i32 %0, 64
  br i1 %cmp, label %if.then, label %if.else

if.then:                                          ; preds = %entry
  br label %if.end

if.else:                                          ; preds = %entry
  call void @__assert_fail(ptr noundef @.str.64, ptr noundef @.str.65, i32 noundef 422, ptr noundef @__PRETTY_FUNCTION__.virtio_has_feature) #13
  unreachable

if.end:                                           ; preds = %if.then
  %1 = load i64, ptr %features.addr, align 8
  %2 = load i32, ptr %fbit.addr, align 4
  %sh_prom = zext i32 %2 to i64
  %shl = shl i64 1, %sh_prom
  %and = and i64 %1, %shl
  %tobool = icmp ne i64 %and, 0
  %lnot = xor i1 %tobool, true
  %lnot1 = xor i1 %lnot, true
  ret i1 %lnot1
}

; Function Attrs: nounwind sspstrong uwtable
define internal void @virtio_queue_split_set_last_avail_idx(ptr noundef %vdev, i32 noundef %n, i32 noundef %idx) #0 {
entry:
  %vdev.addr = alloca ptr, align 8
  %n.addr = alloca i32, align 4
  %idx.addr = alloca i32, align 4
  store ptr %vdev, ptr %vdev.addr, align 8
  store i32 %n, ptr %n.addr, align 4
  store i32 %idx, ptr %idx.addr, align 4
  %0 = load i32, ptr %idx.addr, align 4
  %conv = trunc i32 %0 to i16
  %1 = load ptr, ptr %vdev.addr, align 8
  %vq = getelementptr inbounds %struct.VirtIODevice, ptr %1, i32 0, i32 13
  %2 = load ptr, ptr %vq, align 8
  %3 = load i32, ptr %n.addr, align 4
  %idxprom = sext i32 %3 to i64
  %arrayidx = getelementptr %struct.VirtQueue, ptr %2, i64 %idxprom
  %last_avail_idx = getelementptr inbounds %struct.VirtQueue, ptr %arrayidx, i32 0, i32 2
  store i16 %conv, ptr %last_avail_idx, align 8
  %4 = load i32, ptr %idx.addr, align 4
  %conv1 = trunc i32 %4 to i16
  %5 = load ptr, ptr %vdev.addr, align 8
  %vq2 = getelementptr inbounds %struct.VirtIODevice, ptr %5, i32 0, i32 13
  %6 = load ptr, ptr %vq2, align 8
  %7 = load i32, ptr %n.addr, align 4
  %idxprom3 = sext i32 %7 to i64
  %arrayidx4 = getelementptr %struct.VirtQueue, ptr %6, i64 %idxprom3
  %shadow_avail_idx = getelementptr inbounds %struct.VirtQueue, ptr %arrayidx4, i32 0, i32 4
  store i16 %conv1, ptr %shadow_avail_idx, align 4
  ret void
}

; Function Attrs: nounwind sspstrong uwtable
define internal void @virtio_queue_packed_set_last_avail_idx(ptr noundef %vdev, i32 noundef %n, i32 noundef %idx) #0 {
entry:
  %vdev.addr = alloca ptr, align 8
  %n.addr = alloca i32, align 4
  %idx.addr = alloca i32, align 4
  %vq = alloca ptr, align 8
  store ptr %vdev, ptr %vdev.addr, align 8
  store i32 %n, ptr %n.addr, align 4
  store i32 %idx, ptr %idx.addr, align 4
  %0 = load ptr, ptr %vdev.addr, align 8
  %vq1 = getelementptr inbounds %struct.VirtIODevice, ptr %0, i32 0, i32 13
  %1 = load ptr, ptr %vq1, align 8
  %2 = load i32, ptr %n.addr, align 4
  %idxprom = sext i32 %2 to i64
  %arrayidx = getelementptr %struct.VirtQueue, ptr %1, i64 %idxprom
  store ptr %arrayidx, ptr %vq, align 8
  %3 = load i32, ptr %idx.addr, align 4
  %and = and i32 %3, 32767
  %conv = trunc i32 %and to i16
  %4 = load ptr, ptr %vq, align 8
  %shadow_avail_idx = getelementptr inbounds %struct.VirtQueue, ptr %4, i32 0, i32 4
  store i16 %conv, ptr %shadow_avail_idx, align 4
  %5 = load ptr, ptr %vq, align 8
  %last_avail_idx = getelementptr inbounds %struct.VirtQueue, ptr %5, i32 0, i32 2
  store i16 %conv, ptr %last_avail_idx, align 8
  %6 = load i32, ptr %idx.addr, align 4
  %and2 = and i32 %6, 32768
  %tobool = icmp ne i32 %and2, 0
  %lnot = xor i1 %tobool, true
  %lnot3 = xor i1 %lnot, true
  %7 = load ptr, ptr %vq, align 8
  %shadow_avail_wrap_counter = getelementptr inbounds %struct.VirtQueue, ptr %7, i32 0, i32 5
  %frombool = zext i1 %lnot3 to i8
  store i8 %frombool, ptr %shadow_avail_wrap_counter, align 2
  %8 = load ptr, ptr %vq, align 8
  %last_avail_wrap_counter = getelementptr inbounds %struct.VirtQueue, ptr %8, i32 0, i32 3
  %frombool4 = zext i1 %lnot3 to i8
  store i8 %frombool4, ptr %last_avail_wrap_counter, align 2
  %9 = load i32, ptr %idx.addr, align 4
  %shr = lshr i32 %9, 16
  store i32 %shr, ptr %idx.addr, align 4
  %10 = load i32, ptr %idx.addr, align 4
  %and5 = and i32 %10, 32767
  %conv6 = trunc i32 %and5 to i16
  %11 = load ptr, ptr %vq, align 8
  %used_idx = getelementptr inbounds %struct.VirtQueue, ptr %11, i32 0, i32 6
  store i16 %conv6, ptr %used_idx, align 8
  %12 = load i32, ptr %idx.addr, align 4
  %and7 = and i32 %12, 32768
  %tobool8 = icmp ne i32 %and7, 0
  %lnot9 = xor i1 %tobool8, true
  %lnot10 = xor i1 %lnot9, true
  %13 = load ptr, ptr %vq, align 8
  %used_wrap_counter = getelementptr inbounds %struct.VirtQueue, ptr %13, i32 0, i32 7
  %frombool11 = zext i1 %lnot10 to i8
  store i8 %frombool11, ptr %used_wrap_counter, align 2
  ret void
}

; Function Attrs: nounwind sspstrong uwtable
define internal zeroext i1 @virtio_vdev_has_feature(ptr noundef %vdev, i32 noundef %fbit) #0 {
entry:
  %vdev.addr = alloca ptr, align 8
  %fbit.addr = alloca i32, align 4
  store ptr %vdev, ptr %vdev.addr, align 8
  store i32 %fbit, ptr %fbit.addr, align 4
  %0 = load ptr, ptr %vdev.addr, align 8
  %guest_features = getelementptr inbounds %struct.VirtIODevice, ptr %0, i32 0, i32 6
  %1 = load i64, ptr %guest_features, align 8
  %2 = load i32, ptr %fbit.addr, align 4
  %call = call zeroext i1 @virtio_has_feature(i64 noundef %1, i32 noundef %2)
  ret i1 %call
}

; Function Attrs: nounwind sspstrong uwtable
define dso_local void @virtio_queue_set_last_avail_idx(ptr noundef %vdev, i32 noundef %n, i32 noundef %idx) #0 {
entry:
  %vdev.addr = alloca ptr, align 8
  %n.addr = alloca i32, align 4
  %idx.addr = alloca i32, align 4
  store ptr %vdev, ptr %vdev.addr, align 8
  store i32 %n, ptr %n.addr, align 4
  store i32 %idx, ptr %idx.addr, align 4
  %0 = load ptr, ptr %vdev.addr, align 8
  %call = call zeroext i1 @virtio_vdev_has_feature(ptr noundef %0, i32 noundef 34)
  br i1 %call, label %if.then, label %if.else

if.then:                                          ; preds = %entry
  %1 = load ptr, ptr %vdev.addr, align 8
  %2 = load i32, ptr %n.addr, align 4
  %3 = load i32, ptr %idx.addr, align 4
  call void @virtio_queue_packed_set_last_avail_idx(ptr noundef %1, i32 noundef %2, i32 noundef %3)
  br label %if.end

if.else:                                          ; preds = %entry
  %4 = load ptr, ptr %vdev.addr, align 8
  %5 = load i32, ptr %n.addr, align 4
  %6 = load i32, ptr %idx.addr, align 4
  call void @virtio_queue_split_set_last_avail_idx(ptr noundef %4, i32 noundef %5, i32 noundef %6)
  br label %if.end

if.end:                                           ; preds = %if.else, %if.then
  ret void
}