; Function Attrs: mustprogress nofree norecurse nosync nounwind sspstrong willreturn memory(write, argmem: readwrite, inaccessiblemem: none) uwtable
define dso_local void @virtio_queue_set_last_avail_idx(ptr noundef readonly captures(none) %vdev, i32 noundef %n, i32 noundef %idx) local_unnamed_addr #13 {
entry:
  %0 = getelementptr i8, ptr %vdev, i64 184
  %vdev.val = load i64, ptr %0, align 8
  %and.i.i = and i64 %vdev.val, 17179869184
  %tobool.i.i.not = icmp eq i64 %and.i.i, 0
  br i1 %tobool.i.i.not, label %if.else, label %if.then

if.then:                                          ; preds = %entry
  %1 = getelementptr i8, ptr %vdev, i64 232
  %vdev.val5 = load ptr, ptr %1, align 8
  %idxprom.i = sext i32 %n to i64
  %arrayidx.i = getelementptr %struct.VirtQueue, ptr %vdev.val5, i64 %idxprom.i
  %2 = trunc i32 %idx to i16
  %conv.i = and i16 %2, 32767
  %shadow_avail_idx.i = getelementptr inbounds nuw i8, ptr %arrayidx.i, i64 60
  store i16 %conv.i, ptr %shadow_avail_idx.i, align 4
  %last_avail_idx.i = getelementptr inbounds nuw i8, ptr %arrayidx.i, i64 56
  store i16 %conv.i, ptr %last_avail_idx.i, align 8
  %shadow_avail_wrap_counter.i = getelementptr inbounds nuw i8, ptr %arrayidx.i, i64 62
  %and2.i = lshr i32 %idx, 15
  %3 = trunc i32 %and2.i to i8
  %frombool.i = and i8 %3, 1
  store i8 %frombool.i, ptr %shadow_avail_wrap_counter.i, align 2
  %last_avail_wrap_counter.i = getelementptr inbounds nuw i8, ptr %arrayidx.i, i64 58
  store i8 %frombool.i, ptr %last_avail_wrap_counter.i, align 2
  %shr.i = lshr i32 %idx, 16
  %4 = trunc nuw i32 %shr.i to i16
  %conv6.i = and i16 %4, 32767
  %used_idx.i = getelementptr inbounds nuw i8, ptr %arrayidx.i, i64 64
  store i16 %conv6.i, ptr %used_idx.i, align 8
  %used_wrap_counter.i = getelementptr inbounds nuw i8, ptr %arrayidx.i, i64 66
  %idx.lobit.i = lshr i32 %idx, 31
  %frombool11.i = trunc nuw nsw i32 %idx.lobit.i to i8
  store i8 %frombool11.i, ptr %used_wrap_counter.i, align 2
  br label %if.end

if.else:                                          ; preds = %entry
  %conv.i6 = trunc i32 %idx to i16
  %vq.i = getelementptr inbounds nuw i8, ptr %vdev, i64 232
  %5 = load ptr, ptr %vq.i, align 8
  %idxprom.i7 = sext i32 %n to i64
  %last_avail_idx.i8 = getelementptr %struct.VirtQueue, ptr %5, i64 %idxprom.i7, i32 2
  store i16 %conv.i6, ptr %last_avail_idx.i8, align 8
  %6 = load ptr, ptr %vq.i, align 8
  %shadow_avail_idx.i9 = getelementptr %struct.VirtQueue, ptr %6, i64 %idxprom.i7, i32 4
  store i16 %conv.i6, ptr %shadow_avail_idx.i9, align 4
  br label %if.end

if.end:                                           ; preds = %if.else, %if.then
  ret void
}